target datalayout = "e-m:e-p270:32:32-p271:32:32-p272:64:64-i64:64-i128:128-f80:128-n8:16:32:64-S128"
target triple = "x86_64-pc-linux-gnu"

%class.JVMCIEnv = type { ptr, i8, i8, ptr, i8, i8, ptr, i32, i32, ptr, ptr }

; Function Attrs: mustprogress nounwind uwtable
define linkonce_odr hidden noundef zeroext i1 @_ZN8JVMCIEnv10is_hotspotEv(ptr noundef nonnull align 8 dereferenceable(64) %0) #1 comdat align 2 {
  %2 = alloca ptr, align 8
  store ptr %0, ptr %2, align 8
  %3 = load ptr, ptr %2, align 8
  %4 = getelementptr inbounds %class.JVMCIEnv, ptr %3, i32 0, i32 4
  %5 = load i8, ptr %4, align 8
  %6 = trunc i8 %5 to i1
  ret i1 %6
}

; Function Attrs: mustprogress nounwind uwtable
define hidden void @_ZN8JVMCIEnv29set_BytecodeFrame_UNKNOWN_BCIEi(ptr noundef nonnull align 8 dereferenceable(64) %0, i32 noundef %1) #1 align 2 {
  %3 = alloca ptr, align 8
  %4 = alloca i32, align 4
  store ptr %0, ptr %3, align 8
  store i32 %1, ptr %4, align 4
  %5 = load ptr, ptr %3, align 8
  %6 = call noundef zeroext i1 @_ZN8JVMCIEnv10is_hotspotEv(ptr noundef nonnull align 8 dereferenceable(64) %5)
  br i1 %6, label %7, label %9

7:                                                ; preds = %2
  %8 = load i32, ptr %4, align 4
  call void @_ZN12HotSpotJVMCI13BytecodeFrame15set_UNKNOWN_BCIEP8JVMCIEnvi(ptr noundef %5, i32 noundef %8)
  br label %11

9:                                                ; preds = %2
  %10 = load i32, ptr %4, align 4
  call void @_ZN8JNIJVMCI13BytecodeFrame15set_UNKNOWN_BCIEP8JVMCIEnvi(ptr noundef %5, i32 noundef %10)
  br label %11

11:                                               ; preds = %9, %7
  ret void
}